(dp0
S'comSpeed'
p1
I1
sS'comSpeedReal'
p2
I19200
sS'WIFI_pass'
p3
I0
sS'SSID'
p4
I0
sS'delayFirstCon'
p5
I5000
sS'typeRedCal'
p6
I1
sS'delayBlock'
p7
I500
sS'delay'
p8
I4
sS'IP_ECU'
p9
I0
sS'autodetect'
p10
I1
sS'typeECU'
p11
I0
s.