(dp0
S'delay'
p1
I4
sS'comSpeed'
p2
I0
sS'comSpeedReal'
p3
I9600
sS'WIFI_pass'
p4
I0
sS'SSID'
p5
I0
sS'delayFirstCon'
p6
I2000
sS'typeRedCal'
p7
I1
sS'IP_ECU'
p8
I0
sS'delayBlock'
p9
I500
sS'typeECU'
p10
I0
s.