(dp0
S'comSpeed'
p1
I0
sS'delay'
p2
I4
sS'WIFI_pass'
p3
I0
sS'SSID'
p4
I0
sS'delayFirstCon'
p5
I5000
sS'typeRedCal'
p6
I1
sS'delayBlock'
p7
I500
sS'comSpeedReal'
p8
I9600
sS'IP_ECU'
p9
I0
sS'autodetect'
p10
I1
sS'typeECU'
p11
I0
s.